target datalayout = "e-m:e-p270:32:32-p271:32:32-p272:64:64-i64:64-i128:128-f80:128-n8:16:32:64-S128"
target triple = "x86_64-pc-linux-gnu"

%struct.lv_area_t = type { i32, i32, i32, i32 }

; Function Attrs: nounwind uwtable
define void @lv_area_increase(ptr noundef %0, i32 noundef %1, i32 noundef %2) #0 {
  %4 = alloca ptr, align 8
  %5 = alloca i32, align 4
  %6 = alloca i32, align 4
  store ptr %0, ptr %4, align 8, !tbaa !3
  store i32 %1, ptr %5, align 4, !tbaa !7
  store i32 %2, ptr %6, align 4, !tbaa !7
  %7 = load i32, ptr %5, align 4, !tbaa !7
  %8 = load ptr, ptr %4, align 8, !tbaa !3
  %9 = getelementptr inbounds nuw %struct.lv_area_t, ptr %8, i32 0, i32 0
  %10 = load i32, ptr %9, align 4, !tbaa !9
  %11 = sub nsw i32 %10, %7
  store i32 %11, ptr %9, align 4, !tbaa !9
  %12 = load i32, ptr %5, align 4, !tbaa !7
  %13 = load ptr, ptr %4, align 8, !tbaa !3
  %14 = getelementptr inbounds nuw %struct.lv_area_t, ptr %13, i32 0, i32 2
  %15 = load i32, ptr %14, align 4, !tbaa !12
  %16 = add nsw i32 %15, %12
  store i32 %16, ptr %14, align 4, !tbaa !12
  %17 = load i32, ptr %6, align 4, !tbaa !7
  %18 = load ptr, ptr %4, align 8, !tbaa !3
  %19 = getelementptr inbounds nuw %struct.lv_area_t, ptr %18, i32 0, i32 1
  %20 = load i32, ptr %19, align 4, !tbaa !11
  %21 = sub nsw i32 %20, %17
  store i32 %21, ptr %19, align 4, !tbaa !11
  %22 = load i32, ptr %6, align 4, !tbaa !7
  %23 = load ptr, ptr %4, align 8, !tbaa !3
  %24 = getelementptr inbounds nuw %struct.lv_area_t, ptr %23, i32 0, i32 3
  %25 = load i32, ptr %24, align 4, !tbaa !13
  %26 = add nsw i32 %25, %22
  store i32 %26, ptr %24, align 4, !tbaa !13
  ret void
}