; Function Attrs: mustprogress nofree norecurse nosync nounwind willreturn memory(argmem: readwrite) uwtable
define void @lv_area_increase(ptr noundef captures(none) %0, i32 noundef %1, i32 noundef %2) local_unnamed_addr #1 {
  %4 = load i32, ptr %0, align 4, !tbaa !3
  %5 = sub nsw i32 %4, %1
  store i32 %5, ptr %0, align 4, !tbaa !3
  %6 = getelementptr inbounds nuw i8, ptr %0, i64 8
  %7 = load i32, ptr %6, align 4, !tbaa !9
  %8 = add nsw i32 %7, %1
  store i32 %8, ptr %6, align 4, !tbaa !9
  %9 = getelementptr inbounds nuw i8, ptr %0, i64 4
  %10 = load i32, ptr %9, align 4, !tbaa !8
  %11 = sub nsw i32 %10, %2
  store i32 %11, ptr %9, align 4, !tbaa !8
  %12 = getelementptr inbounds nuw i8, ptr %0, i64 12
  %13 = load i32, ptr %12, align 4, !tbaa !10
  %14 = add nsw i32 %13, %2
  store i32 %14, ptr %12, align 4, !tbaa !10
  ret void
}